(dp0
S'psessionid'
p1
S'8368046764001d636f6e6e7365727665725f77656271714031302e3133332e34312e383400001ad00000066b026e040015808a206d0000000a406172314338344a69526d0000002859185d94e66218548d1ecb1a12513c86126b3afb97a3c2955b1070324790733ddb059ab166de6857'
p2
sS'buddyStr'
p3
S'\xe5\xa5\xbd\xe5\x8f\x8b\xe5\x88\x97\xe8\xa1\xa8:\n\t0, cappuccino (4280509805)\n\t1, \xe6\xa3\xae\xe6\x9e\x97\xe7\xb3\xbb\xe8\xbf\xb7\xe9\x9b\xbe (1612888743)\n\t2, 123 (3160370486)\n\t3, \xe5\xae\x89\xe7\x84\xb6\xe5\xa6\x82\xe6\x96\xaf (957291926)\n\t4, Change (1371497975)\n\t5,  Oh my Q (523437890)\n\t6, \xe8\x8a\xb1\xe4\xbc\xbc\xe4\xbc\x8a\xe9\xb8\x9f\xe4\xbc\xbc\xe4\xbc\x8a (2162118881)\n\t7, \xe5\xb0\x8f \xe7\x85\xa9\xf0\x9f\x8d\x84 (83761234)\n\t8, SpringHack (330002628)\n\t9, \xe5\xbd\xbc\xe3\x81\xae (2169902332)\n\t10, l  d o   b e l i e v e  (3770735637)\n\t11, \xe7\xae\x80\xe3\x80\x82\xef\xbc\x8c\xe4\xb8\xad (1100817831)\n\t12, \xe5\xb0\x8f\xe5\xae\x89\xe0\xb9\x91FEEL (3011411964)'
p4
sS'hash'
p5
S'09345D3108775464'
p6
sS'buddy'
p7
((L4280509805L
S'cappuccino'
p8
tp9
(I1612888743
S'\xe6\xa3\xae\xe6\x9e\x97\xe7\xb3\xbb\xe8\xbf\xb7\xe9\x9b\xbe'
p10
tp11
(L3160370486L
S'123'
p12
tp13
(I957291926
S'\xe5\xae\x89\xe7\x84\xb6\xe5\xa6\x82\xe6\x96\xaf'
p14
tp15
(I1371497975
S'Change'
p16
tp17
(I523437890
S' Oh my Q'
p18
tp19
(L2162118881L
S'\xe8\x8a\xb1\xe4\xbc\xbc\xe4\xbc\x8a\xe9\xb8\x9f\xe4\xbc\xbc\xe4\xbc\x8a'
p20
tp21
(I83761234
S'\xe5\xb0\x8f \xe7\x85\xa9\xf0\x9f\x8d\x84'
p22
tp23
(I330002628
S'SpringHack'
p24
tp25
(L2169902332L
S'\xe5\xbd\xbc\xe3\x81\xae'
p26
tp27
(L3770735637L
S'l  d o   b e l i e v e '
p28
tp29
(I1100817831
S'\xe7\xae\x80\xe3\x80\x82\xef\xbc\x8c\xe4\xb8\xad'
p30
tp31
(L3011411964L
S'\xe5\xb0\x8f\xe5\xae\x89\xe0\xb9\x91FEEL'
p32
tp33
tp34
sS'discussStr'
p35
S'\xe8\xae\xa8\xe8\xae\xba\xe7\xbb\x84\xe5\x88\x97\xe8\xa1\xa8:\n\t0, \xe5\x86\x9c\xe5\xa4\xab\xe4\xba\x94\xe6\x9c\x88\xe5\xa4\xa9\xe5\x9b\xbd\xe5\xba\x86\xe7\xba\xa6\xe7\x82\xae\xe5\xa4\xa9\xe5\xa4\xa9\xe6\x92\xb8\xe5\x87\xba\xe8\xa1\x80\xe5\x92\xa9\xe5\x93\x88 (2446652921)\n\t1, \xe5\xaf\xb9\xe4\xba\x8e\xe5\xa4\xa7\xe8\x84\x91\xe8\xa2\x8b\xe5\x92\x8c\xe5\xa5\xb9\xe5\xa6\x88\xe6\x88\x91\xe7\xae\x80\xe7\x9b\xb4\xe4\xb8\x8d\xe8\x83\xbd\xe5\x88\x86\xe8\xbe\xa8\xe5\xbc\x80 (2223312212)'
p36
sS'urlPtwebqq'
p37
S'http://ptlogin4.web2.qq.com/check_sig?pttype=1&uin=1903310895&service=ptqrlogin&nodirect=0&ptsigx=1abeeb76e7b37536e3f98625292b093d5cff5c40cd6ae0529b5f6bca39db6d9799d3249d7d79e9438541b6c877cae1b97f1d96b52c743e04fd7c9d1b21af9202&s_url=http%3A%2F%2Fw.qq.com%2Fproxy.html%3Flogin2qq%3D1%26webqq_type%3D10&f_url=&ptlang=2052&ptredirect=100&aid=501004106&daid=164&j_later=0&low_login_hour=0&regmaster=0&pt_login_type=3&pt_aid=0&pt_aaid=16&pt_light=0&pt_3rd_aid=0'
p38
sS'clientid'
p39
I53999199
sS'qqNum'
p40
I1903310895
sS'nick'
p41
S'\xe5\xae\x87\xe6\x96\x87\xe6\x9c\xaf\xe5\xad\xa6'
p42
sS'token'
p43
S'asdasd'
p44
sS'session'
p45
ccopy_reg
_reconstructor
p46
(crequests.sessions
Session
p47
c__builtin__
object
p48
Ntp49
Rp50
(dp51
S'cookies'
p52
g46
(crequests.cookies
RequestsCookieJar
p53
g48
Ntp54
Rp55
(dp56
S'_now'
p57
I1477143965
sS'_policy'
p58
(icookielib
DefaultCookiePolicy
p59
(dp60
S'strict_rfc2965_unverifiable'
p61
I01
sS'strict_ns_domain'
p62
I0
sS'_allowed_domains'
p63
NsS'rfc2109_as_netscape'
p64
NsS'rfc2965'
p65
I00
sS'strict_domain'
p66
I00
sg57
I1477143965
sS'strict_ns_set_path'
p67
I00
sS'strict_ns_unverifiable'
p68
I00
sS'strict_ns_set_initial_dollar'
p69
I00
sS'hide_cookie2'
p70
I00
sS'_blocked_domains'
p71
(tsS'netscape'
p72
I01
sbsS'_cookies'
p73
(dp74
S''
p75
(dp76
S'/'
p77
(dp78
S'ptcz'
p79
(icookielib
Cookie
p80
(dp81
S'comment'
p82
NsS'domain'
p83
g75
sS'name'
p84
g79
sS'domain_initial_dot'
p85
I00
sS'expires'
p86
NsS'value'
p87
S'ad3bf14f9da2738e09e498bfeb93dd9da7540dea2b7a71acfb97ed4d3da4e277'
p88
sS'domain_specified'
p89
I00
sS'_rest'
p90
(dp91
S'HttpOnly'
p92
NssS'version'
p93
I0
sS'port_specified'
p94
I00
sS'rfc2109'
p95
I00
sS'discard'
p96
I01
sS'path_specified'
p97
I01
sS'path'
p98
g77
sS'port'
p99
NsS'comment_url'
p100
NsS'secure'
p101
I00
sbsS'pgv_pvi'
p102
(icookielib
Cookie
p103
(dp104
g82
Nsg83
g75
sg84
g102
sg85
I00
sg86
Nsg87
S'911366144'
p105
sg89
I00
sg90
(dp106
g92
Nssg93
I0
sg94
I00
sg95
I00
sg96
I01
sg97
I01
sg98
g77
sg99
Nsg100
Nsg101
I00
sbsS'pgv_info'
p107
(icookielib
Cookie
p108
(dp109
g82
Nsg83
g75
sg84
g107
sg85
I00
sg86
Nsg87
S'ssid pgv_pvid=1051433466'
p110
sg89
I00
sg90
(dp111
g92
Nssg93
I0
sg94
I00
sg95
I00
sg96
I01
sg97
I01
sg98
g77
sg99
Nsg100
Nsg101
I00
sbsS'RK'
p112
(icookielib
Cookie
p113
(dp114
g82
Nsg83
g75
sg84
g112
sg85
I00
sg86
Nsg87
S'OfeLBai4FB'
p115
sg89
I00
sg90
(dp116
g92
Nssg93
I0
sg94
I00
sg95
I00
sg96
I01
sg97
I01
sg98
g77
sg99
Nsg100
Nsg101
I00
sbsssS'.ptlogin2.qq.com'
p117
(dp118
g77
(dp119
S'pt_login_sig'
p120
(icookielib
Cookie
p121
(dp122
g82
Nsg83
g117
sg84
g120
sg85
I00
sg86
Nsg87
S'iWU*SA6KxhadXcEytWdi4sw8xieIQE1TvBaFC-boAvJFTXyIUT2ypGot6yAWbagV'
p123
sg89
I01
sg90
(dp124
sg93
I0
sg94
I00
sg95
I00
sg96
I01
sg97
I01
sg98
g77
sg99
Nsg100
Nsg101
I00
sbsS'ptnick_1903310895'
p125
(icookielib
Cookie
p126
(dp127
g82
Nsg83
S'.ptlogin2.qq.com'
p128
sg84
g125
sg85
I00
sg86
Nsg87
S'e5ae87e69687e69cafe5ada6'
p129
sg89
I01
sg90
(dp130
sg93
I0
sg94
I00
sg95
I00
sg96
I01
sg97
I01
sg98
g77
sg99
Nsg100
Nsg101
I00
sbsS'qrsig'
p131
(icookielib
Cookie
p132
(dp133
g82
Nsg83
S'.ptlogin2.qq.com'
p134
sg84
g131
sg85
I00
sg86
Nsg87
S'8vVvF-cVKvVmm4YwKE5twAYSXCzEKQUg7taCS6nXvNdMQU66jK1EyfpouQ-S*wS5'
p135
sg89
I01
sg90
(dp136
sg93
I0
sg94
I00
sg95
I00
sg96
I01
sg97
I01
sg98
g77
sg99
Nsg100
Nsg101
I00
sbsS'pt_serverip'
p137
(icookielib
Cookie
p138
(dp139
g82
Nsg83
S'.ptlogin2.qq.com'
p140
sg84
g137
sg85
I00
sg86
Nsg87
S'8c840a820aa12cd0'
p141
sg89
I01
sg90
(dp142
sg93
I0
sg94
I00
sg95
I00
sg96
I01
sg97
I01
sg98
g77
sg99
Nsg100
Nsg101
I00
sbsS'supertoken'
p143
(icookielib
Cookie
p144
(dp145
g82
Nsg83
S'.ptlogin2.qq.com'
p146
sg84
g143
sg85
I00
sg86
Nsg87
S'3473860641'
p147
sg89
I01
sg90
(dp148
sg93
I0
sg94
I00
sg95
I00
sg96
I01
sg97
I01
sg98
g77
sg99
Nsg100
Nsg101
I00
sbsS'ETK'
p149
(icookielib
Cookie
p150
(dp151
g82
Nsg83
S'.ptlogin2.qq.com'
p152
sg84
g149
sg85
I00
sg86
Nsg87
g75
sg89
I01
sg90
(dp153
sg93
I0
sg94
I00
sg95
I00
sg96
I01
sg97
I01
sg98
g77
sg99
Nsg100
Nsg101
I00
sbsS'pt_clientip'
p154
(icookielib
Cookie
p155
(dp156
g82
Nsg83
S'.ptlogin2.qq.com'
p157
sg84
g154
sg85
I00
sg86
Nsg87
S'5aa50af08a0da698'
p158
sg89
I01
sg90
(dp159
sg93
I0
sg94
I00
sg95
I00
sg96
I01
sg97
I01
sg98
g77
sg99
Nsg100
Nsg101
I00
sbsS'u_1903310895'
p160
(icookielib
Cookie
p161
(dp162
g82
Nsg83
S'.ptlogin2.qq.com'
p163
sg84
g160
sg85
I00
sg86
Nsg87
S'@eNIzcfa1O:1477143964:1477143964:e5ae87e69687e69cafe5ada6:0'
p164
sg89
I01
sg90
(dp165
S'HttpOnly'
p166
Nssg93
I0
sg94
I00
sg95
I00
sg96
I01
sg97
I01
sg98
g77
sg99
Nsg100
Nsg101
I00
sbsS'superkey'
p167
(icookielib
Cookie
p168
(dp169
g82
Nsg83
S'.ptlogin2.qq.com'
p170
sg84
g167
sg85
I00
sg86
Nsg87
S'NjGvWVeS54Vab8lx3m6MKr2E1-z4MWKClVGjwLvSlWs_'
p171
sg89
I01
sg90
(dp172
S'HttpOnly'
p173
Nssg93
I0
sg94
I00
sg95
I00
sg96
I01
sg97
I01
sg98
g77
sg99
Nsg100
Nsg101
I00
sbsS'superuin'
p174
(icookielib
Cookie
p175
(dp176
g82
Nsg83
S'.ptlogin2.qq.com'
p177
sg84
g174
sg85
I00
sg86
Nsg87
S'o1903310895'
p178
sg89
I01
sg90
(dp179
sg93
I0
sg94
I00
sg95
I00
sg96
I01
sg97
I01
sg98
g77
sg99
Nsg100
Nsg101
I00
sbsssS'.ui.ptlogin2.qq.com'
p180
(dp181
g77
(dp182
S'pt_user_id'
p183
(icookielib
Cookie
p184
(dp185
g82
Nsg83
g180
sg84
g183
sg85
I00
sg86
I1792503960
sg87
S'4630935141666243428'
p186
sg89
I01
sg90
(dp187
sg93
I0
sg94
I00
sg95
I00
sg96
I00
sg97
I01
sg98
g77
sg99
Nsg100
Nsg101
I00
sbsS'ptui_identifier'
p188
(icookielib
Cookie
p189
(dp190
g82
Nsg83
S'.ui.ptlogin2.qq.com'
p191
sg84
g188
sg85
I00
sg86
Nsg87
S'000D7EB04E63DC2F307A9501341FD3BC5F2E582F3C7B2C8959185F2D'
p192
sg89
I01
sg90
(dp193
sg93
I0
sg94
I00
sg95
I00
sg96
I01
sg97
I01
sg98
g77
sg99
Nsg100
Nsg101
I00
sbsssS'.qq.com'
p194
(dp195
g77
(dp196
S'skey'
p197
(icookielib
Cookie
p198
(dp199
g82
Nsg83
S'.qq.com'
p200
sg84
S'skey'
p201
sg85
I00
sg86
Nsg87
S'@eNIzcfa1O'
p202
sg89
I01
sg90
(dp203
sg93
I0
sg94
I00
sg95
I00
sg96
I01
sg97
I01
sg98
g77
sg99
Nsg100
Nsg101
I00
sbsS'ptwebqq'
p204
(icookielib
Cookie
p205
(dp206
g82
Nsg83
S'.qq.com'
p207
sg84
g204
sg85
I00
sg86
Nsg87
S'fe956c066de189254ea817675f4ce04d135dca5d642c69d6d81937cf3faa44d0'
p208
sg89
I01
sg90
(dp209
sg93
I0
sg94
I00
sg95
I00
sg96
I01
sg97
I01
sg98
g77
sg99
Nsg100
Nsg101
I00
sbsS'pt2gguin'
p210
(icookielib
Cookie
p211
(dp212
g82
Nsg83
S'.qq.com'
p213
sg84
S'pt2gguin'
p214
sg85
I00
sg86
I1577923200
sg87
S'o1903310895'
p215
sg89
I01
sg90
(dp216
sg93
I0
sg94
I00
sg95
I00
sg96
I00
sg97
I01
sg98
g77
sg99
Nsg100
Nsg101
I00
sbsS'uin'
p217
(icookielib
Cookie
p218
(dp219
g82
Nsg83
S'.qq.com'
p220
sg84
S'uin'
p221
sg85
I00
sg86
Nsg87
S'o1903310895'
p222
sg89
I01
sg90
(dp223
sg93
I0
sg94
I00
sg95
I00
sg96
I01
sg97
I01
sg98
g77
sg99
Nsg100
Nsg101
I00
sbsssS'.web2.qq.com'
p224
(dp225
g77
(dp226
S'p_uin'
p227
(icookielib
Cookie
p228
(dp229
g82
Nsg83
g224
sg84
g227
sg85
I00
sg86
Nsg87
S'o1903310895'
p230
sg89
I01
sg90
(dp231
sg93
I0
sg94
I00
sg95
I00
sg96
I01
sg97
I01
sg98
g77
sg99
Nsg100
Nsg101
I00
sbsS'p_skey'
p232
(icookielib
Cookie
p233
(dp234
g82
Nsg83
S'.web2.qq.com'
p235
sg84
g232
sg85
I00
sg86
Nsg87
S'XCPYlG4a7rV0wzX49PrCv8f-Y5KQtcj88OS4IGKZl28_'
p236
sg89
I01
sg90
(dp237
sg93
I0
sg94
I00
sg95
I00
sg96
I01
sg97
I01
sg98
g77
sg99
Nsg100
Nsg101
I00
sbsS'pt4_token'
p238
(icookielib
Cookie
p239
(dp240
g82
Nsg83
S'.web2.qq.com'
p241
sg84
g238
sg85
I00
sg86
Nsg87
S'PeW3NfnFl9n6qcP8selXAfcs5sBt*pQFDkC3izCyl8E_'
p242
sg89
I01
sg90
(dp243
sg93
I0
sg94
I00
sg95
I00
sg96
I01
sg97
I01
sg98
g77
sg99
Nsg100
Nsg101
I00
sbssssbsS'stream'
p244
I00
sS'hooks'
p245
(dp246
S'response'
p247
(lp248
ssS'auth'
p249
NsS'trust_env'
p250
I01
sS'headers'
p251
g46
(crequests.structures
CaseInsensitiveDict
p252
g48
Ntp253
Rp254
(dp255
S'_store'
p256
(dp257
S'origin'
p258
(S'Origin'
p259
S'http://d1.web2.qq.com'
p260
tp261
sS'accept-encoding'
p262
(S'Accept-Encoding'
p263
S'gzip, deflate, compress'
p264
tp265
sS'accept'
p266
(S'Accept'
p267
S'*/*'
p268
tp269
sS'user-agent'
p270
(S'User-Agent'
p271
S'Mozilla/5.0 (Macintosh; Intel Mac OS X 10.9; rv:27.0) Gecko/20100101 Firefox/27.0'
p272
tp273
sS'referer'
p274
(S'Referer'
p275
S'http://d1.web2.qq.com/proxy.html?v=20151105001&callback=1&id=2'
p276
tp277
sS'content-type'
p278
(S'Content-Type'
p279
S'application/x-www-form-urlencoded; charset=UTF-8'
p280
tp281
ssbsS'cert'
p282
NsS'params'
p283
(dp284
sS'prefetch'
p285
NsS'timeout'
p286
NsS'verify'
p287
I01
sS'proxies'
p288
(dp289
sS'adapters'
p290
curllib3.packages.ordered_dict
OrderedDict
p291
((lp292
(lp293
S'https://'
p294
ag46
(crequests.adapters
HTTPAdapter
p295
g48
Ntp296
Rp297
(dp298
S'_pool_block'
p299
I00
sS'_pool_maxsize'
p300
I10
sS'max_retries'
p301
I0
sS'config'
p302
(dp303
sS'_pool_connections'
p304
I10
sbaa(lp305
S'http://'
p306
ag46
(g295
g48
Ntp307
Rp308
(dp309
g299
I00
sg300
I10
sg301
I0
sg302
(dp310
sg304
I10
sbaatp311
Rp312
sS'max_redirects'
p313
I30
sbsS'groupStr'
p314
S'\xe8\xae\xa8\xe8\xae\xba\xe7\xbb\x84\xe5\x88\x97\xe8\xa1\xa8:\n\t0, 13\xe7\xba\xa7\xe8\xbd\xaf\xe4\xbb\xb6301\xe7\x8f\xad (2037044545)\n\t1, \xe6\xb2\x88\xe8\x88\xaaDIY (2374779302)\n\t2, \xe7\xae\x97\xe6\xb3\x95\xe4\xba\xa4\xe6\xb5\x81\xe7\xbe\xa4 (915616028)\n\t3, \xe8\xae\xa1\xe7\xae\x97\xe6\x9c\xba\xe5\xad\xa6\xe9\x99\xa2ACM\xe5\x9f\xb9\xe5\x85\xbb\xe5\x9f\xba\xe5\x9c\xb0 (1216936743)\n\t4, SAU ACM Team (4243098719)'
p315
sS'ptwebqq'
p316
g208
sS'group'
p317
((I2037044545
S'13\xe7\xba\xa7\xe8\xbd\xaf\xe4\xbb\xb6301\xe7\x8f\xad'
p318
tp319
(L2374779302L
S'\xe6\xb2\x88\xe8\x88\xaaDIY'
p320
tp321
(I915616028
S'\xe7\xae\x97\xe6\xb3\x95\xe4\xba\xa4\xe6\xb5\x81\xe7\xbe\xa4'
p322
tp323
(I1216936743
S'\xe8\xae\xa1\xe7\xae\x97\xe6\x9c\xba\xe5\xad\xa6\xe9\x99\xa2ACM\xe5\x9f\xb9\xe5\x85\xbb\xe5\x9f\xba\xe5\x9c\xb0'
p324
tp325
(L4243098719L
S'SAU ACM Team'
p326
tp327
tp328
sS'uin'
p329
I1903310895
sS'vfwebqq'
p330
S'fda1b9c2644d44ed4836411831a5238a749da77e8b11eaa16b4b414d5bebb32ef8858f97cb2fa804'
p331
sS'discuss'
p332
((L2446652921L
S'\xe5\x86\x9c\xe5\xa4\xab\xe4\xba\x94\xe6\x9c\x88\xe5\xa4\xa9\xe5\x9b\xbd\xe5\xba\x86\xe7\xba\xa6\xe7\x82\xae\xe5\xa4\xa9\xe5\xa4\xa9\xe6\x92\xb8\xe5\x87\xba\xe8\xa1\x80\xe5\x92\xa9\xe5\x93\x88'
p333
tp334
(L2223312212L
S'\xe5\xaf\xb9\xe4\xba\x8e\xe5\xa4\xa7\xe8\x84\x91\xe8\xa2\x8b\xe5\x92\x8c\xe5\xa5\xb9\xe5\xa6\x88\xe6\x88\x91\xe7\xae\x80\xe7\x9b\xb4\xe4\xb8\x8d\xe8\x83\xbd\xe5\x88\x86\xe8\xbe\xa8\xe5\xbc\x80'
p335
tp336
tp337
s.